---
triple:          'arm64-apple-darwin'
binary-path:     '/Users/pob08/Desktop/cpp/task-1/main'
relocations:
  - { offsetInCU: 0x4C, offset: 0x4C, size: 0x8, addend: 0x0, symName: __ZN13GameComponent9instancesE, symObjAddr: 0x1F12C, symBinAddr: 0x100008000, symSize: 0x0 }
  - { offsetInCU: 0x3803, offset: 0x3803, size: 0x8, addend: 0x0, symName: __ZNSt3__16chronogtB8ue170006IxNS_5ratioILl1ELl1EEExS3_EEbRKNS0_8durationIT_T0_EERKNS4_IT1_T2_EE, symObjAddr: 0xAE4, symBinAddr: 0x100002968, symSize: 0x30 }
  - { offsetInCU: 0x3864, offset: 0x3864, size: 0x8, addend: 0x0, symName: __ZNSt3__16chronoltB8ue170006IxNS_5ratioILl1ELl1EEEeS3_EEbRKNS0_8durationIT_T0_EERKNS4_IT1_T2_EE, symObjAddr: 0xB50, symBinAddr: 0x1000029D4, symSize: 0x34 }
  - { offsetInCU: 0x38C5, offset: 0x38C5, size: 0x8, addend: 0x0, symName: __ZNSt3__16chrono13duration_castB8ue170006INS0_8durationIxNS_5ratioILl1ELl1000000000EEEEExNS3_ILl1ELl1EEEEENS_9enable_ifIXsr13__is_durationIT_EE5valueES8_E4typeERKNS2_IT0_T1_EE, symObjAddr: 0xB84, symBinAddr: 0x100002A08, symSize: 0x30 }
  - { offsetInCU: 0x390C, offset: 0x390C, size: 0x8, addend: 0x0, symName: __ZNSt3__16chronoltB8ue170006IxNS_5ratioILl1ELl1000000000EEExNS2_ILl1ELl1EEEEEbRKNS0_8durationIT_T0_EERKNS5_IT1_T2_EE, symObjAddr: 0xBB4, symBinAddr: 0x100002A38, symSize: 0x34 }
  - { offsetInCU: 0x396D, offset: 0x396D, size: 0x8, addend: 0x0, symName: __ZNSt3__16chronoltB8ue170006IxNS_5ratioILl1ELl1EEExS3_EEbRKNS0_8durationIT_T0_EERKNS4_IT1_T2_EE, symObjAddr: 0xC44, symBinAddr: 0x100002AC8, symSize: 0x34 }
  - { offsetInCU: 0x3A4B, offset: 0x3A4B, size: 0x8, addend: 0x0, symName: __ZNSt3__16chrono13duration_castB8ue170006INS0_8durationIeNS_5ratioILl1ELl1EEEEExS4_EENS_9enable_ifIXsr13__is_durationIT_EE5valueES7_E4typeERKNS2_IT0_T1_EE, symObjAddr: 0xE5C, symBinAddr: 0x100002CE0, symSize: 0x30 }
  - { offsetInCU: 0x3D25, offset: 0x3D25, size: 0x8, addend: 0x0, symName: __ZNSt3__124__put_character_sequenceB8ue170006IcNS_11char_traitsIcEEEERNS_13basic_ostreamIT_T0_EES7_PKS4_m, symObjAddr: 0x11E4, symBinAddr: 0x100003068, symSize: 0x1EC }
  - { offsetInCU: 0x5889, offset: 0x5889, size: 0x8, addend: 0x0, symName: __ZNSt3__1lsB8ue170006INS_11char_traitsIcEEEERNS_13basic_ostreamIcT_EES6_PKc, symObjAddr: 0x30, symBinAddr: 0x100001EB4, symSize: 0x48 }
  - { offsetInCU: 0x58CF, offset: 0x58CF, size: 0x8, addend: 0x0, symName: __ZNSt3__14endlB8ue170006IcNS_11char_traitsIcEEEERNS_13basic_ostreamIT_T0_EES7_, symObjAddr: 0xA4, symBinAddr: 0x100001F28, symSize: 0x58 }
  - { offsetInCU: 0x5914, offset: 0x5914, size: 0x8, addend: 0x0, symName: __ZNSt3__111this_thread9sleep_forB8ue170006IxNS_5ratioILl1ELl1EEEEEvRKNS_6chrono8durationIT_T0_EE, symObjAddr: 0x9EC, symBinAddr: 0x100002870, symSize: 0xBC }
  - { offsetInCU: 0x5B96, offset: 0x5B96, size: 0x8, addend: 0x0, symName: __ZNSt3__116__pad_and_outputB8ue170006IcNS_11char_traitsIcEEEENS_19ostreambuf_iteratorIT_T0_EES6_PKS4_S8_S8_RNS_8ios_baseES4_, symObjAddr: 0x1420, symBinAddr: 0x1000032A4, symSize: 0x240 }
  - { offsetInCU: 0x5C65, offset: 0x5C65, size: 0x8, addend: 0x0, symName: __ZNSt3__112__to_addressB8ue170006IKcEEPT_S3_, symObjAddr: 0x1988, symBinAddr: 0x10000380C, symSize: 0x14 }
  - { offsetInCU: 0x5CCD, offset: 0x5CCD, size: 0x8, addend: 0x0, symName: __ZNSt3__19use_facetB8ue170006INS_5ctypeIcEEEERKT_RKNS_6localeE, symObjAddr: 0x1C08, symBinAddr: 0x100003A8C, symSize: 0x2C }
  - { offsetInCU: 0x619A, offset: 0x619A, size: 0x8, addend: 0x0, symName: __ZNSt3__118__constexpr_strlenB8ue170006EPKc, symObjAddr: 0x1CA0, symBinAddr: 0x100003B24, symSize: 0x24 }
  - { offsetInCU: 0x65AA, offset: 0x65AA, size: 0x8, addend: 0x0, symName: __ZNKSt3__16chrono13__duration_ltINS0_8durationIxNS_5ratioILl1ELl1EEEEENS2_IeS4_EEEclB8ue170006ERKS5_RKS6_, symObjAddr: 0xD54, symBinAddr: 0x100002BD8, symSize: 0x6C }
  - { offsetInCU: 0x6625, offset: 0x6625, size: 0x8, addend: 0x0, symName: __ZNKSt3__16chrono15__duration_castINS0_8durationIxNS_5ratioILl1ELl1EEEEENS2_IxNS3_ILl1ELl1000000000EEEEENS3_ILl1000000000ELl1EEELb0ELb1EEclB8ue170006ERKS5_, symObjAddr: 0xF34, symBinAddr: 0x100002DB8, symSize: 0x4C }
  - { offsetInCU: 0x666C, offset: 0x666C, size: 0x8, addend: 0x0, symName: __ZNKSt3__16chrono13__duration_ltINS0_8durationIxNS_5ratioILl1ELl1000000000EEEEENS2_IxNS3_ILl1ELl1EEEEEEclB8ue170006ERKS5_RKS7_, symObjAddr: 0xFE4, symBinAddr: 0x100002E68, symSize: 0x6C }
  - { offsetInCU: 0x8A39, offset: 0x8A39, size: 0x8, addend: 0x0, symName: __Z10Initialisev, symObjAddr: 0x0, symBinAddr: 0x100001E84, symSize: 0x30 }
  - { offsetInCU: 0x8A52, offset: 0x8A52, size: 0x8, addend: 0x0, symName: __ZNSt3__113basic_ostreamIcNS_11char_traitsIcEEElsB8ue170006EPFRS3_S4_E, symObjAddr: 0x78, symBinAddr: 0x100001EFC, symSize: 0x2C }
  - { offsetInCU: 0x8A85, offset: 0x8A85, size: 0x8, addend: 0x0, symName: __Z9Terminatev, symObjAddr: 0xFC, symBinAddr: 0x100001F80, symSize: 0x30 }
  - { offsetInCU: 0x8A9F, offset: 0x8A9F, size: 0x8, addend: 0x0, symName: _main, symObjAddr: 0x12C, symBinAddr: 0x100001FB0, symSize: 0x148 }
  - { offsetInCU: 0x8B96, offset: 0x8B96, size: 0x8, addend: 0x0, symName: __ZN4GameC1Ev, symObjAddr: 0x274, symBinAddr: 0x1000020F8, symSize: 0x2C }
  - { offsetInCU: 0x8BBF, offset: 0x8BBF, size: 0x8, addend: 0x0, symName: __ZN4Game13SetInitialiseEPFvvE, symObjAddr: 0x2A0, symBinAddr: 0x100002124, symSize: 0x20 }
  - { offsetInCU: 0x8BF2, offset: 0x8BF2, size: 0x8, addend: 0x0, symName: __ZN4Game12SetTerminateEPFvvE, symObjAddr: 0x2C0, symBinAddr: 0x100002144, symSize: 0x20 }
  - { offsetInCU: 0x8C25, offset: 0x8C25, size: 0x8, addend: 0x0, symName: __ZN4Game3AddEP13GameComponent, symObjAddr: 0x2E0, symBinAddr: 0x100002164, symSize: 0x50 }
  - { offsetInCU: 0x8C58, offset: 0x8C58, size: 0x8, addend: 0x0, symName: __ZN13GameComponentC1Ev, symObjAddr: 0x330, symBinAddr: 0x1000021B4, symSize: 0x2C }
  - { offsetInCU: 0x8C81, offset: 0x8C81, size: 0x8, addend: 0x0, symName: __ZN21DrawableGameComponentC1Ev, symObjAddr: 0x35C, symBinAddr: 0x1000021E0, symSize: 0x2C }
  - { offsetInCU: 0x8CA9, offset: 0x8CA9, size: 0x8, addend: 0x0, symName: __ZN4Game3RunEv, symObjAddr: 0x388, symBinAddr: 0x10000220C, symSize: 0x11C }
  - { offsetInCU: 0x8D06, offset: 0x8D06, size: 0x8, addend: 0x0, symName: __ZN4GameD1Ev, symObjAddr: 0x4A4, symBinAddr: 0x100002328, symSize: 0x2C }
  - { offsetInCU: 0x8D2F, offset: 0x8D2F, size: 0x8, addend: 0x0, symName: __ZN4GameC2Ev, symObjAddr: 0x4D0, symBinAddr: 0x100002354, symSize: 0x20 }
  - { offsetInCU: 0x8D58, offset: 0x8D58, size: 0x8, addend: 0x0, symName: __ZN13GameComponentC2Ev, symObjAddr: 0x4F0, symBinAddr: 0x100002374, symSize: 0x38 }
  - { offsetInCU: 0x8D80, offset: 0x8D80, size: 0x8, addend: 0x0, symName: __ZN13GameComponent6UpdateEi, symObjAddr: 0x528, symBinAddr: 0x1000023AC, symSize: 0x68 }
  - { offsetInCU: 0x8DB3, offset: 0x8DB3, size: 0x8, addend: 0x0, symName: __ZN13GameComponentD1Ev, symObjAddr: 0x590, symBinAddr: 0x100002414, symSize: 0x2C }
  - { offsetInCU: 0x8DDC, offset: 0x8DDC, size: 0x8, addend: 0x0, symName: __ZN13GameComponentD0Ev, symObjAddr: 0x5BC, symBinAddr: 0x100002440, symSize: 0x30 }
  - { offsetInCU: 0x8E05, offset: 0x8E05, size: 0x8, addend: 0x0, symName: __ZN13GameComponentD2Ev, symObjAddr: 0x5EC, symBinAddr: 0x100002470, symSize: 0x14 }
  - { offsetInCU: 0x8E2E, offset: 0x8E2E, size: 0x8, addend: 0x0, symName: __ZN21DrawableGameComponentC2Ev, symObjAddr: 0x600, symBinAddr: 0x100002484, symSize: 0x54 }
  - { offsetInCU: 0x8E56, offset: 0x8E56, size: 0x8, addend: 0x0, symName: __ZN21DrawableGameComponent6UpdateEi, symObjAddr: 0x654, symBinAddr: 0x1000024D8, symSize: 0x170 }
  - { offsetInCU: 0x8E89, offset: 0x8E89, size: 0x8, addend: 0x0, symName: __ZN21DrawableGameComponentD1Ev, symObjAddr: 0x7D4, symBinAddr: 0x100002658, symSize: 0x2C }
  - { offsetInCU: 0x8EB4, offset: 0x8EB4, size: 0x8, addend: 0x0, symName: __ZN21DrawableGameComponentD0Ev, symObjAddr: 0x800, symBinAddr: 0x100002684, symSize: 0x30 }
  - { offsetInCU: 0x8EDE, offset: 0x8EDE, size: 0x8, addend: 0x0, symName: __ZN21DrawableGameComponent4DrawEv, symObjAddr: 0x830, symBinAddr: 0x1000026B4, symSize: 0x114 }
  - { offsetInCU: 0x8F02, offset: 0x8F02, size: 0x8, addend: 0x0, symName: __ZN21DrawableGameComponent15ChangeDirectionEv, symObjAddr: 0x954, symBinAddr: 0x1000027D8, symSize: 0x6C }
  - { offsetInCU: 0x8F35, offset: 0x8F35, size: 0x8, addend: 0x0, symName: __ZN21DrawableGameComponentD2Ev, symObjAddr: 0x9C0, symBinAddr: 0x100002844, symSize: 0x2C }
  - { offsetInCU: 0x8F6A, offset: 0x8F6A, size: 0x8, addend: 0x0, symName: __ZNSt3__16chrono8durationIxNS_5ratioILl1ELl1EEEEC1B8ue170006IiEERKT_PNS_9enable_ifIXaasr14is_convertibleIS8_xEE5valueooL_ZNS_17integral_constantIbLb0EE5valueEEntsr23treat_as_floating_pointIS6_EE5valueEvE4typeE, symObjAddr: 0xAA8, symBinAddr: 0x10000292C, symSize: 0x3C }
  - { offsetInCU: 0x8FB6, offset: 0x8FB6, size: 0x8, addend: 0x0, symName: __ZNSt3__16chrono8durationIxNS_5ratioILl1ELl1EEEE4zeroB8ue170006Ev, symObjAddr: 0xB14, symBinAddr: 0x100002998, symSize: 0x3C }
  - { offsetInCU: 0x8FCA, offset: 0x8FCA, size: 0x8, addend: 0x0, symName: __ZNSt3__16chrono8durationIxNS_5ratioILl1ELl1000000000EEEEppB8ue170006Ev, symObjAddr: 0xBE8, symBinAddr: 0x100002A6C, symSize: 0x20 }
  - { offsetInCU: 0x8FEF, offset: 0x8FEF, size: 0x8, addend: 0x0, symName: __ZNSt3__16chrono8durationIxNS_5ratioILl1ELl1000000000EEEE3maxB8ue170006Ev, symObjAddr: 0xC08, symBinAddr: 0x100002A8C, symSize: 0x3C }
  - { offsetInCU: 0x900C, offset: 0x900C, size: 0x8, addend: 0x0, symName: __ZNKSt3__16chrono13__duration_ltINS0_8durationIxNS_5ratioILl1ELl1EEEEES5_EclB8ue170006ERKS5_S8_, symObjAddr: 0xC78, symBinAddr: 0x100002AFC, symSize: 0x4C }
  - { offsetInCU: 0x904F, offset: 0x904F, size: 0x8, addend: 0x0, symName: __ZNKSt3__16chrono8durationIxNS_5ratioILl1ELl1EEEE5countB8ue170006Ev, symObjAddr: 0xCC4, symBinAddr: 0x100002B48, symSize: 0x18 }
  - { offsetInCU: 0x9074, offset: 0x9074, size: 0x8, addend: 0x0, symName: __ZNSt3__16chrono15duration_valuesIxE4zeroB8ue170006Ev, symObjAddr: 0xCDC, symBinAddr: 0x100002B60, symSize: 0x8 }
  - { offsetInCU: 0x9092, offset: 0x9092, size: 0x8, addend: 0x0, symName: __ZNSt3__16chrono8durationIxNS_5ratioILl1ELl1EEEEC1B8ue170006IxEERKT_PNS_9enable_ifIXaasr14is_convertibleIS8_xEE5valueooL_ZNS_17integral_constantIbLb0EE5valueEEntsr23treat_as_floating_pointIS6_EE5valueEvE4typeE, symObjAddr: 0xCE4, symBinAddr: 0x100002B68, symSize: 0x3C }
  - { offsetInCU: 0x90DE, offset: 0x90DE, size: 0x8, addend: 0x0, symName: __ZNSt3__16chrono8durationIxNS_5ratioILl1ELl1EEEEC2B8ue170006IxEERKT_PNS_9enable_ifIXaasr14is_convertibleIS8_xEE5valueooL_ZNS_17integral_constantIbLb0EE5valueEEntsr23treat_as_floating_pointIS6_EE5valueEvE4typeE, symObjAddr: 0xD2C, symBinAddr: 0x100002BB0, symSize: 0x28 }
  - { offsetInCU: 0x912A, offset: 0x912A, size: 0x8, addend: 0x0, symName: __ZNSt3__16chrono8durationIeNS_5ratioILl1ELl1EEEEC1B8ue170006IxS3_EERKNS1_IT_T0_EEPNS_9enable_ifIXaasr13__no_overflowIS7_S3_EE5valueooL_ZNS_17integral_constantIbLb1EE5valueEEaaeqsr13__no_overflowIS7_S3_E4typeE3denLi1Entsr23treat_as_floating_pointIS6_EE5valueEvE4typeE, symObjAddr: 0xDC0, symBinAddr: 0x100002C44, symSize: 0x3C }
  - { offsetInCU: 0x9180, offset: 0x9180, size: 0x8, addend: 0x0, symName: __ZNKSt3__16chrono8durationIeNS_5ratioILl1ELl1EEEE5countB8ue170006Ev, symObjAddr: 0xDFC, symBinAddr: 0x100002C80, symSize: 0x18 }
  - { offsetInCU: 0x91A5, offset: 0x91A5, size: 0x8, addend: 0x0, symName: __ZNSt3__16chrono8durationIeNS_5ratioILl1ELl1EEEEC2B8ue170006IxS3_EERKNS1_IT_T0_EEPNS_9enable_ifIXaasr13__no_overflowIS7_S3_EE5valueooL_ZNS_17integral_constantIbLb1EE5valueEEaaeqsr13__no_overflowIS7_S3_E4typeE3denLi1Entsr23treat_as_floating_pointIS6_EE5valueEvE4typeE, symObjAddr: 0xE14, symBinAddr: 0x100002C98, symSize: 0x48 }
  - { offsetInCU: 0x9204, offset: 0x9204, size: 0x8, addend: 0x0, symName: __ZNKSt3__16chrono15__duration_castINS0_8durationIxNS_5ratioILl1ELl1EEEEENS2_IeS4_EES4_Lb1ELb1EEclB8ue170006ERKS5_, symObjAddr: 0xE8C, symBinAddr: 0x100002D10, symSize: 0x44 }
  - { offsetInCU: 0x9241, offset: 0x9241, size: 0x8, addend: 0x0, symName: __ZNSt3__16chrono8durationIeNS_5ratioILl1ELl1EEEEC1B8ue170006IeEERKT_PNS_9enable_ifIXaasr14is_convertibleIS8_eEE5valueooL_ZNS_17integral_constantIbLb1EE5valueEEntsr23treat_as_floating_pointIS6_EE5valueEvE4typeE, symObjAddr: 0xED0, symBinAddr: 0x100002D54, symSize: 0x3C }
  - { offsetInCU: 0x928D, offset: 0x928D, size: 0x8, addend: 0x0, symName: __ZNSt3__16chrono8durationIeNS_5ratioILl1ELl1EEEEC2B8ue170006IeEERKT_PNS_9enable_ifIXaasr14is_convertibleIS8_eEE5valueooL_ZNS_17integral_constantIbLb1EE5valueEEntsr23treat_as_floating_pointIS6_EE5valueEvE4typeE, symObjAddr: 0xF0C, symBinAddr: 0x100002D90, symSize: 0x28 }
  - { offsetInCU: 0x92D9, offset: 0x92D9, size: 0x8, addend: 0x0, symName: __ZNSt3__16chrono8durationIxNS_5ratioILl1ELl1000000000EEEEC1B8ue170006IxEERKT_PNS_9enable_ifIXaasr14is_convertibleIS8_xEE5valueooL_ZNS_17integral_constantIbLb0EE5valueEEntsr23treat_as_floating_pointIS6_EE5valueEvE4typeE, symObjAddr: 0xF80, symBinAddr: 0x100002E04, symSize: 0x3C }
  - { offsetInCU: 0x9325, offset: 0x9325, size: 0x8, addend: 0x0, symName: __ZNSt3__16chrono8durationIxNS_5ratioILl1ELl1000000000EEEEC2B8ue170006IxEERKT_PNS_9enable_ifIXaasr14is_convertibleIS8_xEE5valueooL_ZNS_17integral_constantIbLb0EE5valueEEntsr23treat_as_floating_pointIS6_EE5valueEvE4typeE, symObjAddr: 0xFBC, symBinAddr: 0x100002E40, symSize: 0x28 }
  - { offsetInCU: 0x9371, offset: 0x9371, size: 0x8, addend: 0x0, symName: __ZNKSt3__16chrono8durationIxNS_5ratioILl1ELl1000000000EEEE5countB8ue170006Ev, symObjAddr: 0x1050, symBinAddr: 0x100002ED4, symSize: 0x18 }
  - { offsetInCU: 0x9396, offset: 0x9396, size: 0x8, addend: 0x0, symName: __ZNSt3__16chrono8durationIxNS_5ratioILl1ELl1000000000EEEEC1B8ue170006IxNS2_ILl1ELl1EEEEERKNS1_IT_T0_EEPNS_9enable_ifIXaasr13__no_overflowIS8_S3_EE5valueooL_ZNS_17integral_constantIbLb0EE5valueEEaaeqsr13__no_overflowIS8_S3_E4typeE3denLi1Entsr23treat_as_floating_pointIS7_EE5valueEvE4typeE, symObjAddr: 0x1068, symBinAddr: 0x100002EEC, symSize: 0x3C }
  - { offsetInCU: 0x93EC, offset: 0x93EC, size: 0x8, addend: 0x0, symName: __ZNSt3__16chrono8durationIxNS_5ratioILl1ELl1000000000EEEEC2B8ue170006IxNS2_ILl1ELl1EEEEERKNS1_IT_T0_EEPNS_9enable_ifIXaasr13__no_overflowIS8_S3_EE5valueooL_ZNS_17integral_constantIbLb0EE5valueEEaaeqsr13__no_overflowIS8_S3_E4typeE3denLi1Entsr23treat_as_floating_pointIS7_EE5valueEvE4typeE, symObjAddr: 0x10A4, symBinAddr: 0x100002F28, symSize: 0x50 }
  - { offsetInCU: 0x9442, offset: 0x9442, size: 0x8, addend: 0x0, symName: __ZNSt3__16chrono15duration_valuesIxE3maxB8ue170006Ev, symObjAddr: 0x10F4, symBinAddr: 0x100002F78, symSize: 0x14 }
  - { offsetInCU: 0x9456, offset: 0x9456, size: 0x8, addend: 0x0, symName: __ZNSt3__114numeric_limitsIxE3maxB8ue170006Ev, symObjAddr: 0x1108, symBinAddr: 0x100002F8C, symSize: 0x14 }
  - { offsetInCU: 0x946A, offset: 0x946A, size: 0x8, addend: 0x0, symName: __ZNSt3__123__libcpp_numeric_limitsIxLb1EE3maxB8ue170006Ev, symObjAddr: 0x111C, symBinAddr: 0x100002FA0, symSize: 0x8 }
  - { offsetInCU: 0x947E, offset: 0x947E, size: 0x8, addend: 0x0, symName: __ZNSt3__16chrono8durationIxNS_5ratioILl1ELl1EEEEC2B8ue170006IiEERKT_PNS_9enable_ifIXaasr14is_convertibleIS8_xEE5valueooL_ZNS_17integral_constantIbLb0EE5valueEEntsr23treat_as_floating_pointIS6_EE5valueEvE4typeE, symObjAddr: 0x1124, symBinAddr: 0x100002FA8, symSize: 0x28 }
  - { offsetInCU: 0x94CA, offset: 0x94CA, size: 0x8, addend: 0x0, symName: __ZN4GameD2Ev, symObjAddr: 0x114C, symBinAddr: 0x100002FD0, symSize: 0x98 }
  - { offsetInCU: 0x950F, offset: 0x950F, size: 0x8, addend: 0x0, symName: __ZNSt3__111char_traitsIcE6lengthB8ue170006EPKc, symObjAddr: 0x13D0, symBinAddr: 0x100003254, symSize: 0x34 }
  - { offsetInCU: 0x9550, offset: 0x9550, size: 0x8, addend: 0x0, symName: __ZNKSt3__113basic_ostreamIcNS_11char_traitsIcEEE6sentrycvbB8ue170006Ev, symObjAddr: 0x1404, symBinAddr: 0x100003288, symSize: 0x1C }
  - { offsetInCU: 0x9575, offset: 0x9575, size: 0x8, addend: 0x0, symName: __ZNSt3__119ostreambuf_iteratorIcNS_11char_traitsIcEEEC1B8ue170006ERNS_13basic_ostreamIcS2_EE, symObjAddr: 0x1660, symBinAddr: 0x1000034E4, symSize: 0x34 }
  - { offsetInCU: 0x95AC, offset: 0x95AC, size: 0x8, addend: 0x0, symName: __ZNKSt3__18ios_base5flagsB8ue170006Ev, symObjAddr: 0x1694, symBinAddr: 0x100003518, symSize: 0x18 }
  - { offsetInCU: 0x95D3, offset: 0x95D3, size: 0x8, addend: 0x0, symName: __ZNKSt3__19basic_iosIcNS_11char_traitsIcEEE4fillB8ue170006Ev, symObjAddr: 0x16AC, symBinAddr: 0x100003530, symSize: 0x64 }
  - { offsetInCU: 0x95FA, offset: 0x95FA, size: 0x8, addend: 0x0, symName: __ZNKSt3__119ostreambuf_iteratorIcNS_11char_traitsIcEEE6failedB8ue170006Ev, symObjAddr: 0x1710, symBinAddr: 0x100003594, symSize: 0x24 }
  - { offsetInCU: 0x961E, offset: 0x961E, size: 0x8, addend: 0x0, symName: __ZNSt3__19basic_iosIcNS_11char_traitsIcEEE8setstateB8ue170006Ej, symObjAddr: 0x1734, symBinAddr: 0x1000035B8, symSize: 0x2C }
  - { offsetInCU: 0x9652, offset: 0x9652, size: 0x8, addend: 0x0, symName: __ZNKSt3__18ios_base5widthB8ue170006Ev, symObjAddr: 0x1760, symBinAddr: 0x1000035E4, symSize: 0x18 }
  - { offsetInCU: 0x9678, offset: 0x9678, size: 0x8, addend: 0x0, symName: __ZNSt3__115basic_streambufIcNS_11char_traitsIcEEE5sputnB8ue170006EPKcl, symObjAddr: 0x1778, symBinAddr: 0x1000035FC, symSize: 0x3C }
  - { offsetInCU: 0x96B9, offset: 0x96B9, size: 0x8, addend: 0x0, symName: __ZNSt3__112basic_stringIcNS_11char_traitsIcEENS_9allocatorIcEEEC1B8ue170006Emc, symObjAddr: 0x17B4, symBinAddr: 0x100003638, symSize: 0x3C }
  - { offsetInCU: 0x96FF, offset: 0x96FF, size: 0x8, addend: 0x0, symName: __ZNKSt3__112basic_stringIcNS_11char_traitsIcEENS_9allocatorIcEEE4dataB8ue170006Ev, symObjAddr: 0x17F0, symBinAddr: 0x100003674, symSize: 0x28 }
  - { offsetInCU: 0x9724, offset: 0x9724, size: 0x8, addend: 0x0, symName: __ZNSt3__18ios_base5widthB8ue170006El, symObjAddr: 0x1818, symBinAddr: 0x10000369C, symSize: 0x2C }
  - { offsetInCU: 0x9769, offset: 0x9769, size: 0x8, addend: 0x0, symName: __ZNSt3__112basic_stringIcNS_11char_traitsIcEENS_9allocatorIcEEEC2B8ue170006Emc, symObjAddr: 0x1844, symBinAddr: 0x1000036C8, symSize: 0x4C }
  - { offsetInCU: 0x97B5, offset: 0x97B5, size: 0x8, addend: 0x0, symName: __ZNSt3__117__compressed_pairINS_12basic_stringIcNS_11char_traitsIcEENS_9allocatorIcEEE5__repES5_EC1B8ue170006INS_18__default_init_tagESA_EEOT_OT0_, symObjAddr: 0x1890, symBinAddr: 0x100003714, symSize: 0x3C }
  - { offsetInCU: 0x980C, offset: 0x980C, size: 0x8, addend: 0x0, symName: __ZNSt3__117__compressed_pairINS_12basic_stringIcNS_11char_traitsIcEENS_9allocatorIcEEE5__repES5_EC2B8ue170006INS_18__default_init_tagESA_EEOT_OT0_, symObjAddr: 0x18CC, symBinAddr: 0x100003750, symSize: 0x3C }
  - { offsetInCU: 0x9863, offset: 0x9863, size: 0x8, addend: 0x0, symName: __ZNSt3__122__compressed_pair_elemINS_12basic_stringIcNS_11char_traitsIcEENS_9allocatorIcEEE5__repELi0ELb0EEC2B8ue170006ENS_18__default_init_tagE, symObjAddr: 0x1908, symBinAddr: 0x10000378C, symSize: 0x14 }
  - { offsetInCU: 0x9897, offset: 0x9897, size: 0x8, addend: 0x0, symName: __ZNSt3__122__compressed_pair_elemINS_9allocatorIcEELi1ELb1EEC2B8ue170006ENS_18__default_init_tagE, symObjAddr: 0x191C, symBinAddr: 0x1000037A0, symSize: 0x2C }
  - { offsetInCU: 0x98CB, offset: 0x98CB, size: 0x8, addend: 0x0, symName: __ZNSt3__19allocatorIcEC2B8ue170006Ev, symObjAddr: 0x1948, symBinAddr: 0x1000037CC, symSize: 0x2C }
  - { offsetInCU: 0x98F4, offset: 0x98F4, size: 0x8, addend: 0x0, symName: __ZNSt3__116__non_trivial_ifILb1ENS_9allocatorIcEEEC2B8ue170006Ev, symObjAddr: 0x1974, symBinAddr: 0x1000037F8, symSize: 0x14 }
  - { offsetInCU: 0x991C, offset: 0x991C, size: 0x8, addend: 0x0, symName: __ZNKSt3__112basic_stringIcNS_11char_traitsIcEENS_9allocatorIcEEE13__get_pointerB8ue170006Ev, symObjAddr: 0x199C, symBinAddr: 0x100003820, symSize: 0x54 }
  - { offsetInCU: 0x9940, offset: 0x9940, size: 0x8, addend: 0x0, symName: __ZNKSt3__112basic_stringIcNS_11char_traitsIcEENS_9allocatorIcEEE9__is_longB8ue170006Ev, symObjAddr: 0x19F0, symBinAddr: 0x100003874, symSize: 0x38 }
  - { offsetInCU: 0x9964, offset: 0x9964, size: 0x8, addend: 0x0, symName: __ZNKSt3__112basic_stringIcNS_11char_traitsIcEENS_9allocatorIcEEE18__get_long_pointerB8ue170006Ev, symObjAddr: 0x1A28, symBinAddr: 0x1000038AC, symSize: 0x28 }
  - { offsetInCU: 0x9988, offset: 0x9988, size: 0x8, addend: 0x0, symName: __ZNKSt3__112basic_stringIcNS_11char_traitsIcEENS_9allocatorIcEEE19__get_short_pointerB8ue170006Ev, symObjAddr: 0x1A50, symBinAddr: 0x1000038D4, symSize: 0x28 }
  - { offsetInCU: 0x99AC, offset: 0x99AC, size: 0x8, addend: 0x0, symName: __ZNKSt3__117__compressed_pairINS_12basic_stringIcNS_11char_traitsIcEENS_9allocatorIcEEE5__repES5_E5firstB8ue170006Ev, symObjAddr: 0x1A78, symBinAddr: 0x1000038FC, symSize: 0x24 }
  - { offsetInCU: 0x99D1, offset: 0x99D1, size: 0x8, addend: 0x0, symName: __ZNKSt3__122__compressed_pair_elemINS_12basic_stringIcNS_11char_traitsIcEENS_9allocatorIcEEE5__repELi0ELb0EE5__getB8ue170006Ev, symObjAddr: 0x1A9C, symBinAddr: 0x100003920, symSize: 0x14 }
  - { offsetInCU: 0x99F6, offset: 0x99F6, size: 0x8, addend: 0x0, symName: __ZNSt3__114pointer_traitsIPKcE10pointer_toB8ue170006ERS1_, symObjAddr: 0x1AB0, symBinAddr: 0x100003934, symSize: 0x14 }
  - { offsetInCU: 0x9A19, offset: 0x9A19, size: 0x8, addend: 0x0, symName: __ZNSt3__119ostreambuf_iteratorIcNS_11char_traitsIcEEEC2B8ue170006ERNS_13basic_ostreamIcS2_EE, symObjAddr: 0x1AC4, symBinAddr: 0x100003948, symSize: 0x54 }
  - { offsetInCU: 0x9A50, offset: 0x9A50, size: 0x8, addend: 0x0, symName: __ZNKSt3__19basic_iosIcNS_11char_traitsIcEEE5rdbufB8ue170006Ev, symObjAddr: 0x1B18, symBinAddr: 0x10000399C, symSize: 0x24 }
  - { offsetInCU: 0x9A77, offset: 0x9A77, size: 0x8, addend: 0x0, symName: __ZNKSt3__18ios_base5rdbufB8ue170006Ev, symObjAddr: 0x1B3C, symBinAddr: 0x1000039C0, symSize: 0x18 }
  - { offsetInCU: 0x9A9C, offset: 0x9A9C, size: 0x8, addend: 0x0, symName: __ZNSt3__111char_traitsIcE11eq_int_typeB8ue170006Eii, symObjAddr: 0x1B54, symBinAddr: 0x1000039D8, symSize: 0x28 }
  - { offsetInCU: 0x9ACF, offset: 0x9ACF, size: 0x8, addend: 0x0, symName: __ZNSt3__111char_traitsIcE3eofB8ue170006Ev, symObjAddr: 0x1B7C, symBinAddr: 0x100003A00, symSize: 0x8 }
  - { offsetInCU: 0x9AE3, offset: 0x9AE3, size: 0x8, addend: 0x0, symName: __ZNKSt3__19basic_iosIcNS_11char_traitsIcEEE5widenB8ue170006Ec, symObjAddr: 0x1B84, symBinAddr: 0x100003A08, symSize: 0x84 }
  - { offsetInCU: 0x9B4F, offset: 0x9B4F, size: 0x8, addend: 0x0, symName: __ZNKSt3__15ctypeIcE5widenB8ue170006Ec, symObjAddr: 0x1C34, symBinAddr: 0x100003AB8, symSize: 0x38 }
  - { offsetInCU: 0x9B83, offset: 0x9B83, size: 0x8, addend: 0x0, symName: __ZNSt3__18ios_base8setstateB8ue170006Ej, symObjAddr: 0x1C6C, symBinAddr: 0x100003AF0, symSize: 0x34 }
...
